; ModuleID = '4/253.c'
source_filename = "4/253.c"
target datalayout = "e-m:e-p270:32:32-p271:32:32-p272:64:64-i64:64-f80:128-n8:16:32:64-S128"
target triple = "x86_64-pc-linux-gnu"

@.str = private unnamed_addr constant [5 x i8] c"%d%d\00", align 1
@.str.1 = private unnamed_addr constant [3 x i8] c"%d\00", align 1
@.str.2 = private unnamed_addr constant [4 x i8] c"%d\0A\00", align 1

; Function Attrs: noinline nounwind uwtable
define dso_local i32 @main() #0 {
  %1 = alloca i32, align 4
  %2 = alloca i32, align 4
  %3 = alloca i32, align 4
  %4 = alloca [100 x [100 x i32]], align 16
  %5 = alloca i32, align 4
  %6 = alloca i32, align 4
  %7 = alloca i32, align 4
  %8 = alloca i32, align 4
  store i32 0, i32* %1, align 4
  %9 = call i32 (i8*, ...) @__isoc99_scanf(i8* getelementptr inbounds ([5 x i8], [5 x i8]* @.str, i64 0, i64 0), i32* %2, i32* %3)
  store i32 0, i32* %5, align 4
  br label %10

10:                                               ; preds = %31, %0
  %11 = load i32, i32* %5, align 4
  %12 = load i32, i32* %2, align 4
  %13 = icmp slt i32 %11, %12
  br i1 %13, label %14, label %34

14:                                               ; preds = %10
  store i32 0, i32* %6, align 4
  br label %15

15:                                               ; preds = %27, %14
  %16 = load i32, i32* %6, align 4
  %17 = load i32, i32* %3, align 4
  %18 = icmp slt i32 %16, %17
  br i1 %18, label %19, label %30

19:                                               ; preds = %15
  %20 = load i32, i32* %5, align 4
  %21 = sext i32 %20 to i64
  %22 = getelementptr inbounds [100 x [100 x i32]], [100 x [100 x i32]]* %4, i64 0, i64 %21
  %23 = load i32, i32* %6, align 4
  %24 = sext i32 %23 to i64
  %25 = getelementptr inbounds [100 x i32], [100 x i32]* %22, i64 0, i64 %24
  %26 = call i32 (i8*, ...) @__isoc99_scanf(i8* getelementptr inbounds ([3 x i8], [3 x i8]* @.str.1, i64 0, i64 0), i32* %25)
  br label %27

27:                                               ; preds = %19
  %28 = load i32, i32* %6, align 4
  %29 = add nsw i32 %28, 1
  store i32 %29, i32* %6, align 4
  br label %15

30:                                               ; preds = %15
  br label %31

31:                                               ; preds = %30
  %32 = load i32, i32* %5, align 4
  %33 = add nsw i32 %32, 1
  store i32 %33, i32* %5, align 4
  br label %10

34:                                               ; preds = %10
  store i32 0, i32* %5, align 4
  br label %35

35:                                               ; preds = %67, %34
  %36 = load i32, i32* %5, align 4
  %37 = load i32, i32* %3, align 4
  %38 = icmp slt i32 %36, %37
  br i1 %38, label %39, label %70

39:                                               ; preds = %35
  %40 = load i32, i32* %5, align 4
  store i32 %40, i32* %7, align 4
  store i32 0, i32* %8, align 4
  store i32 0, i32* %6, align 4
  br label %41

41:                                               ; preds = %63, %39
  %42 = load i32, i32* %6, align 4
  %43 = load i32, i32* %5, align 4
  %44 = icmp sle i32 %42, %43
  br i1 %44, label %45, label %66

45:                                               ; preds = %41
  %46 = load i32, i32* %8, align 4
  %47 = sext i32 %46 to i64
  %48 = getelementptr inbounds [100 x [100 x i32]], [100 x [100 x i32]]* %4, i64 0, i64 %47
  %49 = load i32, i32* %7, align 4
  %50 = sext i32 %49 to i64
  %51 = getelementptr inbounds [100 x i32], [100 x i32]* %48, i64 0, i64 %50
  %52 = load i32, i32* %51, align 4
  %53 = call i32 (i8*, ...) @printf(i8* getelementptr inbounds ([4 x i8], [4 x i8]* @.str.2, i64 0, i64 0), i32 %52)
  %54 = load i32, i32* %8, align 4
  %55 = add nsw i32 %54, 1
  store i32 %55, i32* %8, align 4
  %56 = load i32, i32* %7, align 4
  %57 = add nsw i32 %56, -1
  store i32 %57, i32* %7, align 4
  %58 = load i32, i32* %8, align 4
  %59 = load i32, i32* %2, align 4
  %60 = icmp eq i32 %58, %59
  br i1 %60, label %61, label %62

61:                                               ; preds = %45
  br label %66

62:                                               ; preds = %45
  br label %63

63:                                               ; preds = %62
  %64 = load i32, i32* %6, align 4
  %65 = add nsw i32 %64, 1
  store i32 %65, i32* %6, align 4
  br label %41

66:                                               ; preds = %61, %41
  br label %67

67:                                               ; preds = %66
  %68 = load i32, i32* %5, align 4
  %69 = add nsw i32 %68, 1
  store i32 %69, i32* %5, align 4
  br label %35

70:                                               ; preds = %35
  store i32 1, i32* %5, align 4
  br label %71

71:                                               ; preds = %105, %70
  %72 = load i32, i32* %5, align 4
  %73 = load i32, i32* %2, align 4
  %74 = icmp slt i32 %72, %73
  br i1 %74, label %75, label %108

75:                                               ; preds = %71
  %76 = load i32, i32* %5, align 4
  store i32 %76, i32* %8, align 4
  %77 = load i32, i32* %3, align 4
  %78 = sub nsw i32 %77, 1
  store i32 %78, i32* %7, align 4
  %79 = load i32, i32* %5, align 4
  store i32 %79, i32* %6, align 4
  br label %80

80:                                               ; preds = %101, %75
  %81 = load i32, i32* %6, align 4
  %82 = load i32, i32* %2, align 4
  %83 = icmp slt i32 %81, %82
  br i1 %83, label %84, label %104

84:                                               ; preds = %80
  %85 = load i32, i32* %8, align 4
  %86 = sext i32 %85 to i64
  %87 = getelementptr inbounds [100 x [100 x i32]], [100 x [100 x i32]]* %4, i64 0, i64 %86
  %88 = load i32, i32* %7, align 4
  %89 = sext i32 %88 to i64
  %90 = getelementptr inbounds [100 x i32], [100 x i32]* %87, i64 0, i64 %89
  %91 = load i32, i32* %90, align 4
  %92 = call i32 (i8*, ...) @printf(i8* getelementptr inbounds ([4 x i8], [4 x i8]* @.str.2, i64 0, i64 0), i32 %91)
  %93 = load i32, i32* %8, align 4
  %94 = add nsw i32 %93, 1
  store i32 %94, i32* %8, align 4
  %95 = load i32, i32* %7, align 4
  %96 = add nsw i32 %95, -1
  store i32 %96, i32* %7, align 4
  %97 = load i32, i32* %7, align 4
  %98 = icmp eq i32 %97, -1
  br i1 %98, label %99, label %100

99:                                               ; preds = %84
  br label %104

100:                                              ; preds = %84
  br label %101

101:                                              ; preds = %100
  %102 = load i32, i32* %6, align 4
  %103 = add nsw i32 %102, 1
  store i32 %103, i32* %6, align 4
  br label %80

104:                                              ; preds = %99, %80
  br label %105

105:                                              ; preds = %104
  %106 = load i32, i32* %5, align 4
  %107 = add nsw i32 %106, 1
  store i32 %107, i32* %5, align 4
  br label %71

108:                                              ; preds = %71
  ret i32 0
}

declare dso_local i32 @__isoc99_scanf(i8*, ...) #1

declare dso_local i32 @printf(i8*, ...) #1


!llvm.module.flags = !{!0}
!llvm.ident = !{!1}

!0 = !{i32 1, !"wchar_size", i32 4}
!1 = !{!"clang version 10.0.0-4ubuntu1 "}
